; ModuleID = 'source-C-CXX/51/2212.c'
source_filename = "source-C-CXX/51/2212.c"
target datalayout = "e-m:e-p270:32:32-p271:32:32-p272:64:64-i64:64-f80:128-n8:16:32:64-S128"
target triple = "x86_64-pc-linux-gnu"

@.str = private unnamed_addr constant [6 x i8] c"%d %d\00", align 1
@.str.1 = private unnamed_addr constant [4 x i8] c"%d\09\00", align 1
@.str.3 = private unnamed_addr constant [4 x i8] c"%d \00", align 1
@.str.4 = private unnamed_addr constant [3 x i8] c"%d\00", align 1

; Function Attrs: nofree nounwind sspstrong uwtable
define dso_local i32 @main() local_unnamed_addr #0 {
  %1 = alloca [100 x i32], align 16
  %2 = alloca i32, align 4
  %3 = alloca i32, align 4
  %4 = bitcast [100 x i32]* %1 to i8*
  call void @llvm.lifetime.start.p0i8(i64 400, i8* nonnull %4) #4
  %5 = bitcast i32* %2 to i8*
  call void @llvm.lifetime.start.p0i8(i64 4, i8* nonnull %5) #4
  %6 = bitcast i32* %3 to i8*
  call void @llvm.lifetime.start.p0i8(i64 4, i8* nonnull %6) #4
  %7 = call i32 (i8*, ...) @__isoc99_scanf(i8* getelementptr inbounds ([6 x i8], [6 x i8]* @.str, i64 0, i64 0), i32* nonnull %3, i32* nonnull %2)
  %8 = getelementptr inbounds [100 x i32], [100 x i32]* %1, i64 0, i64 0
  %9 = load i32, i32* %2, align 4, !tbaa !5
  %10 = load i32, i32* %3, align 4, !tbaa !5
  %11 = icmp sgt i32 %10, %9
  br i1 %11, label %12, label %15

12:                                               ; preds = %0
  %13 = sext i32 %9 to i64
  %14 = getelementptr inbounds [100 x i32], [100 x i32]* %1, i64 0, i64 %13
  br label %18

15:                                               ; preds = %18, %0
  %16 = phi i32 [ %9, %0 ], [ %25, %18 ]
  %17 = icmp sgt i32 %16, 0
  br i1 %17, label %28, label %36

18:                                               ; preds = %12, %18
  %19 = phi i32 [ %23, %18 ], [ 0, %12 ]
  %20 = phi i32* [ %21, %18 ], [ %14, %12 ]
  %21 = getelementptr inbounds i32, i32* %20, i64 1
  %22 = call i32 (i8*, ...) @__isoc99_scanf(i8* getelementptr inbounds ([4 x i8], [4 x i8]* @.str.1, i64 0, i64 0), i32* nonnull %20)
  %23 = add nuw nsw i32 %19, 1
  %24 = load i32, i32* %3, align 4, !tbaa !5
  %25 = load i32, i32* %2, align 4, !tbaa !5
  %26 = sub nsw i32 %24, %25
  %27 = icmp slt i32 %23, %26
  br i1 %27, label %18, label %15, !llvm.loop !9

28:                                               ; preds = %15, %28
  %29 = phi i32 [ %33, %28 ], [ 0, %15 ]
  %30 = phi i32* [ %31, %28 ], [ %8, %15 ]
  %31 = getelementptr inbounds i32, i32* %30, i64 1
  %32 = call i32 (i8*, ...) @__isoc99_scanf(i8* getelementptr inbounds ([4 x i8], [4 x i8]* @.str.1, i64 0, i64 0), i32* %30)
  %33 = add nuw nsw i32 %29, 1
  %34 = load i32, i32* %2, align 4, !tbaa !5
  %35 = icmp slt i32 %33, %34
  br i1 %35, label %28, label %36, !llvm.loop !11

36:                                               ; preds = %28, %15
  %37 = call i32 @putchar(i32 10)
  %38 = load i32, i32* %3, align 4, !tbaa !5
  %39 = icmp sgt i32 %38, 0
  br i1 %39, label %40, label %67

40:                                               ; preds = %36, %62
  %41 = phi i32 [ %63, %62 ], [ %38, %36 ]
  %42 = phi i64 [ %64, %62 ], [ 0, %36 ]
  %43 = add nsw i32 %41, -1
  %44 = zext i32 %43 to i64
  %45 = icmp eq i64 %42, %44
  br i1 %45, label %53, label %46

46:                                               ; preds = %40
  %47 = getelementptr inbounds [100 x i32], [100 x i32]* %1, i64 0, i64 %42
  %48 = load i32, i32* %47, align 4, !tbaa !5
  %49 = call i32 (i8*, ...) @printf(i8* nonnull dereferenceable(1) getelementptr inbounds ([4 x i8], [4 x i8]* @.str.3, i64 0, i64 0), i32 %48)
  %50 = load i32, i32* %3, align 4, !tbaa !5
  %51 = add nsw i32 %50, -1
  %52 = zext i32 %51 to i64
  br label %53

53:                                               ; preds = %46, %40
  %54 = phi i64 [ %52, %46 ], [ %44, %40 ]
  %55 = phi i32 [ %50, %46 ], [ %41, %40 ]
  %56 = icmp eq i64 %42, %54
  br i1 %56, label %57, label %62

57:                                               ; preds = %53
  %58 = getelementptr inbounds [100 x i32], [100 x i32]* %1, i64 0, i64 %42
  %59 = load i32, i32* %58, align 4, !tbaa !5
  %60 = call i32 (i8*, ...) @printf(i8* nonnull dereferenceable(1) getelementptr inbounds ([3 x i8], [3 x i8]* @.str.4, i64 0, i64 0), i32 %59)
  %61 = load i32, i32* %3, align 4, !tbaa !5
  br label %62

62:                                               ; preds = %53, %57
  %63 = phi i32 [ %55, %53 ], [ %61, %57 ]
  %64 = add nuw nsw i64 %42, 1
  %65 = sext i32 %63 to i64
  %66 = icmp slt i64 %64, %65
  br i1 %66, label %40, label %67, !llvm.loop !12

67:                                               ; preds = %62, %36
  call void @llvm.lifetime.end.p0i8(i64 4, i8* nonnull %6) #4
  call void @llvm.lifetime.end.p0i8(i64 4, i8* nonnull %5) #4
  call void @llvm.lifetime.end.p0i8(i64 400, i8* nonnull %4) #4
  ret i32 0
}

; Function Attrs: argmemonly mustprogress nofree nosync nounwind willreturn
declare void @llvm.lifetime.start.p0i8(i64 immarg, i8* nocapture) #1

; Function Attrs: nofree nounwind
declare noundef i32 @__isoc99_scanf(i8* nocapture noundef readonly, ...) local_unnamed_addr #2

; Function Attrs: nofree nounwind
declare noundef i32 @printf(i8* nocapture noundef readonly, ...) local_unnamed_addr #2

; Function Attrs: argmemonly mustprogress nofree nosync nounwind willreturn
declare void @llvm.lifetime.end.p0i8(i64 immarg, i8* nocapture) #1

; Function Attrs: nofree nounwind
declare noundef i32 @putchar(i32 noundef) local_unnamed_addr #3


!llvm.module.flags = !{!0, !1, !2, !3}
!llvm.ident = !{!4}

!0 = !{i32 1, !"wchar_size", i32 4}
!1 = !{i32 7, !"PIC Level", i32 2}
!2 = !{i32 7, !"PIE Level", i32 2}
!3 = !{i32 7, !"uwtable", i32 1}
!4 = !{!"clang version 13.0.0"}
!5 = !{!6, !6, i64 0}
!6 = !{!"int", !7, i64 0}
!7 = !{!"omnipotent char", !8, i64 0}
!8 = !{!"Simple C/C++ TBAA"}
!9 = distinct !{!9, !10}
!10 = !{!"llvm.loop.mustprogress"}
!11 = distinct !{!11, !10}
!12 = distinct !{!12, !10}
